; ModuleID = '22/994.c'
source_filename = "22/994.c"
target datalayout = "e-m:e-p270:32:32-p271:32:32-p272:64:64-i64:64-f80:128-n8:16:32:64-S128"
target triple = "x86_64-pc-linux-gnu"

@.str = private unnamed_addr constant [3 x i8] c"%d\00", align 1
@num = common dso_local global [1000 x i32] zeroinitializer, align 16
@.str.1 = private unnamed_addr constant [3 x i8] c"%c\00", align 1
@.str.2 = private unnamed_addr constant [4 x i8] c"No\0A\00", align 1
@.str.3 = private unnamed_addr constant [3 x i8] c"No\00", align 1
@.str.4 = private unnamed_addr constant [4 x i8] c"%d\0A\00", align 1

; Function Attrs: noinline nounwind uwtable
define dso_local i32 @main() #0 {
  %1 = alloca i32, align 4
  %2 = alloca i32, align 4
  %3 = alloca i32, align 4
  %4 = alloca i32, align 4
  %5 = alloca i8, align 1
  %6 = alloca i32, align 4
  store i32 0, i32* %1, align 4
  store i32 0, i32* %2, align 4
  br label %7

7:                                                ; preds = %0, %18
  %8 = load i32, i32* %2, align 4
  %9 = add nsw i32 %8, 1
  store i32 %9, i32* %2, align 4
  %10 = sext i32 %8 to i64
  %11 = getelementptr inbounds [1000 x i32], [1000 x i32]* @num, i64 0, i64 %10
  %12 = call i32 (i8*, ...) @__isoc99_scanf(i8* getelementptr inbounds ([3 x i8], [3 x i8]* @.str, i64 0, i64 0), i32* %11)
  %13 = call i32 (i8*, ...) @__isoc99_scanf(i8* getelementptr inbounds ([3 x i8], [3 x i8]* @.str.1, i64 0, i64 0), i8* %5)
  %14 = load i8, i8* %5, align 1
  %15 = sext i8 %14 to i32
  %16 = icmp eq i32 %15, 10
  br i1 %16, label %17, label %18

17:                                               ; preds = %7
  br label %19

18:                                               ; preds = %7
  br label %7

19:                                               ; preds = %17
  %20 = load i32, i32* %2, align 4
  %21 = icmp eq i32 %20, 1
  br i1 %21, label %22, label %24

22:                                               ; preds = %19
  %23 = call i32 (i8*, ...) @printf(i8* getelementptr inbounds ([4 x i8], [4 x i8]* @.str.2, i64 0, i64 0))
  store i32 0, i32* %1, align 4
  br label %84

24:                                               ; preds = %19
  store i32 0, i32* %4, align 4
  store i32 0, i32* %3, align 4
  store i32 0, i32* %6, align 4
  br label %25

25:                                               ; preds = %65, %24
  %26 = load i32, i32* %6, align 4
  %27 = load i32, i32* %2, align 4
  %28 = icmp slt i32 %26, %27
  br i1 %28, label %29, label %68

29:                                               ; preds = %25
  %30 = load i32, i32* %6, align 4
  %31 = sext i32 %30 to i64
  %32 = getelementptr inbounds [1000 x i32], [1000 x i32]* @num, i64 0, i64 %31
  %33 = load i32, i32* %32, align 4
  %34 = load i32, i32* %4, align 4
  %35 = icmp sgt i32 %33, %34
  br i1 %35, label %36, label %42

36:                                               ; preds = %29
  %37 = load i32, i32* %4, align 4
  store i32 %37, i32* %3, align 4
  %38 = load i32, i32* %6, align 4
  %39 = sext i32 %38 to i64
  %40 = getelementptr inbounds [1000 x i32], [1000 x i32]* @num, i64 0, i64 %39
  %41 = load i32, i32* %40, align 4
  store i32 %41, i32* %4, align 4
  br label %64

42:                                               ; preds = %29
  %43 = load i32, i32* %6, align 4
  %44 = sext i32 %43 to i64
  %45 = getelementptr inbounds [1000 x i32], [1000 x i32]* @num, i64 0, i64 %44
  %46 = load i32, i32* %45, align 4
  %47 = load i32, i32* %4, align 4
  %48 = icmp eq i32 %46, %47
  br i1 %48, label %49, label %50

49:                                               ; preds = %42
  br label %65

50:                                               ; preds = %42
  %51 = load i32, i32* %6, align 4
  %52 = sext i32 %51 to i64
  %53 = getelementptr inbounds [1000 x i32], [1000 x i32]* @num, i64 0, i64 %52
  %54 = load i32, i32* %53, align 4
  %55 = load i32, i32* %3, align 4
  %56 = icmp sgt i32 %54, %55
  br i1 %56, label %57, label %62

57:                                               ; preds = %50
  %58 = load i32, i32* %6, align 4
  %59 = sext i32 %58 to i64
  %60 = getelementptr inbounds [1000 x i32], [1000 x i32]* @num, i64 0, i64 %59
  %61 = load i32, i32* %60, align 4
  store i32 %61, i32* %3, align 4
  br label %62

62:                                               ; preds = %57, %50
  br label %63

63:                                               ; preds = %62
  br label %64

64:                                               ; preds = %63, %36
  br label %65

65:                                               ; preds = %64, %49
  %66 = load i32, i32* %6, align 4
  %67 = add nsw i32 %66, 1
  store i32 %67, i32* %6, align 4
  br label %25

68:                                               ; preds = %25
  %69 = load i32, i32* %3, align 4
  %70 = icmp eq i32 %69, 0
  br i1 %70, label %71, label %73

71:                                               ; preds = %68
  %72 = call i32 (i8*, ...) @printf(i8* getelementptr inbounds ([3 x i8], [3 x i8]* @.str.3, i64 0, i64 0))
  store i32 0, i32* %1, align 4
  br label %84

73:                                               ; preds = %68
  %74 = load i32, i32* %4, align 4
  %75 = load i32, i32* %3, align 4
  %76 = icmp eq i32 %74, %75
  br i1 %76, label %77, label %80

77:                                               ; preds = %73
  %78 = load i32, i32* %4, align 4
  %79 = call i32 (i8*, ...) @printf(i8* getelementptr inbounds ([3 x i8], [3 x i8]* @.str, i64 0, i64 0), i32 %78)
  br label %83

80:                                               ; preds = %73
  %81 = load i32, i32* %3, align 4
  %82 = call i32 (i8*, ...) @printf(i8* getelementptr inbounds ([4 x i8], [4 x i8]* @.str.4, i64 0, i64 0), i32 %81)
  br label %83

83:                                               ; preds = %80, %77
  store i32 0, i32* %1, align 4
  br label %84

84:                                               ; preds = %83, %71, %22
  %85 = load i32, i32* %1, align 4
  ret i32 %85
}

declare dso_local i32 @__isoc99_scanf(i8*, ...) #1

declare dso_local i32 @printf(i8*, ...) #1


!llvm.module.flags = !{!0}
!llvm.ident = !{!1}

!0 = !{i32 1, !"wchar_size", i32 4}
!1 = !{!"clang version 10.0.0-4ubuntu1 "}
